target datalayout = "e-m:e-p270:32:32-p271:32:32-p272:64:64-i64:64-i128:128-f80:128-n8:16:32:64-S128"
target triple = "x86_64-pc-linux-gnu"

%struct.CVodeMemRec = type { ptr, double, ptr, ptr, i32, i32, double, double, ptr, i32, i32, ptr, ptr, i32, i32, ptr, i32, i32, double, double, ptr, i32, i32, i32, i32, ptr, ptr, ptr, i32, i32, ptr, ptr, ptr, i32, double, i32, i32, double, ptr, ptr, ptr, i32, ptr, ptr, i32, i32, i32, double, ptr, ptr, ptr, [13 x ptr], ptr, ptr, ptr, ptr, ptr, ptr, ptr, ptr, ptr, [13 x ptr], ptr, ptr, ptr, ptr, [13 x ptr], ptr, ptr, ptr, ptr, ptr, i32, [13 x ptr], ptr, ptr, ptr, ptr, ptr, i32, i32, double, i32, i32, i32, i32, i32, double, double, double, double, double, double, double, double, [14 x double], [6 x double], [13 x double], double, double, double, double, double, double, double, double, i32, double, double, i32, double, double, ptr, i32, i64, i32, i32, i32, double, double, double, double, double, double, double, double, double, double, double, double, i64, i32, i64, i64, i64, i64, i64, i64, i64, i64, i64, ptr, i64, i64, ptr, i64, i64, ptr, i64, i64, i64, i64, i64, i64, i32, double, double, double, i64, i64, i64, i64, i64, i64, ptr, i32, ptr, i32, ptr, i32, ptr, i32, i32, i64, i32, ptr, i32, ptr, ptr, ptr, ptr, ptr, ptr, i32, i32, ptr, ptr, ptr, ptr, ptr, i64, double, i32, i32, i64, double, double, double, i32, i32, double, i32, i32, i32, i32, i32, i32, i32, i32, i32, i32, i32, i32, i32, i32, i32, i32, ptr, i64, i32, [6 x [4 x double]], i32, i64, ptr, i32, ptr, ptr, double, double, double, ptr, ptr, ptr, double, double, i32, i32, i64, ptr, i32, ptr, i32, i32, [13 x double], ptr, ptr, ptr, i32, ptr, i32 }

; Function Attrs: nounwind uwtable
define internal void @cvQuadSensFreeVectors(ptr noundef %0) #0 {
  %2 = alloca ptr, align 8
  %3 = alloca i32, align 4
  %4 = alloca i32, align 4
  store ptr %0, ptr %2, align 8, !tbaa !10
  call void @llvm.lifetime.start.p0(i64 4, ptr %3) #10
  call void @llvm.lifetime.start.p0(i64 4, ptr %4) #10
  %5 = load ptr, ptr %2, align 8, !tbaa !10
  %6 = getelementptr inbounds nuw %struct.CVodeMemRec, ptr %5, i32 0, i32 204
  %7 = load i32, ptr %6, align 4, !tbaa !256
  store i32 %7, ptr %4, align 4, !tbaa !3
  %8 = load ptr, ptr %2, align 8, !tbaa !10
  %9 = getelementptr inbounds nuw %struct.CVodeMemRec, ptr %8, i32 0, i32 78
  %10 = load ptr, ptr %9, align 8, !tbaa !251
  call void @N_VDestroy(ptr noundef %10)
  %11 = load ptr, ptr %2, align 8, !tbaa !10
  %12 = getelementptr inbounds nuw %struct.CVodeMemRec, ptr %11, i32 0, i32 75
  %13 = load ptr, ptr %12, align 8, !tbaa !252
  %14 = load ptr, ptr %2, align 8, !tbaa !10
  %15 = getelementptr inbounds nuw %struct.CVodeMemRec, ptr %14, i32 0, i32 23
  %16 = load i32, ptr %15, align 8, !tbaa !230
  call void @N_VDestroyVectorArray(ptr noundef %13, i32 noundef %16)
  %17 = load ptr, ptr %2, align 8, !tbaa !10
  %18 = getelementptr inbounds nuw %struct.CVodeMemRec, ptr %17, i32 0, i32 74
  %19 = load ptr, ptr %18, align 8, !tbaa !253
  %20 = load ptr, ptr %2, align 8, !tbaa !10
  %21 = getelementptr inbounds nuw %struct.CVodeMemRec, ptr %20, i32 0, i32 23
  %22 = load i32, ptr %21, align 8, !tbaa !230
  call void @N_VDestroyVectorArray(ptr noundef %19, i32 noundef %22)
  %23 = load ptr, ptr %2, align 8, !tbaa !10
  %24 = getelementptr inbounds nuw %struct.CVodeMemRec, ptr %23, i32 0, i32 76
  %25 = load ptr, ptr %24, align 8, !tbaa !254
  %26 = load ptr, ptr %2, align 8, !tbaa !10
  %27 = getelementptr inbounds nuw %struct.CVodeMemRec, ptr %26, i32 0, i32 23
  %28 = load i32, ptr %27, align 8, !tbaa !230
  call void @N_VDestroyVectorArray(ptr noundef %25, i32 noundef %28)
  %29 = load ptr, ptr %2, align 8, !tbaa !10
  %30 = getelementptr inbounds nuw %struct.CVodeMemRec, ptr %29, i32 0, i32 77
  %31 = load ptr, ptr %30, align 8, !tbaa !255
  %32 = load ptr, ptr %2, align 8, !tbaa !10
  %33 = getelementptr inbounds nuw %struct.CVodeMemRec, ptr %32, i32 0, i32 23
  %34 = load i32, ptr %33, align 8, !tbaa !230
  call void @N_VDestroyVectorArray(ptr noundef %31, i32 noundef %34)
  store i32 0, ptr %3, align 4, !tbaa !3
  br label %35

35:                                               ; preds = %49, %1
  %36 = load i32, ptr %3, align 4, !tbaa !3
  %37 = load i32, ptr %4, align 4, !tbaa !3
  %38 = icmp sle i32 %36, %37
  br i1 %38, label %39, label %52

39:                                               ; preds = %35
  %40 = load ptr, ptr %2, align 8, !tbaa !10
  %41 = getelementptr inbounds nuw %struct.CVodeMemRec, ptr %40, i32 0, i32 73
  %42 = load i32, ptr %3, align 4, !tbaa !3
  %43 = sext i32 %42 to i64
  %44 = getelementptr inbounds [13 x ptr], ptr %41, i64 0, i64 %43
  %45 = load ptr, ptr %44, align 8, !tbaa !152
  %46 = load ptr, ptr %2, align 8, !tbaa !10
  %47 = getelementptr inbounds nuw %struct.CVodeMemRec, ptr %46, i32 0, i32 23
  %48 = load i32, ptr %47, align 8, !tbaa !230
  call void @N_VDestroyVectorArray(ptr noundef %45, i32 noundef %48)
  br label %49

49:                                               ; preds = %39
  %50 = load i32, ptr %3, align 4, !tbaa !3
  %51 = add nsw i32 %50, 1
  store i32 %51, ptr %3, align 4, !tbaa !3
  br label %35

52:                                               ; preds = %35
  %53 = load i32, ptr %4, align 4, !tbaa !3
  %54 = add nsw i32 %53, 5
  %55 = load ptr, ptr %2, align 8, !tbaa !10
  %56 = getelementptr inbounds nuw %struct.CVodeMemRec, ptr %55, i32 0, i32 23
  %57 = load i32, ptr %56, align 8, !tbaa !230
  %58 = mul nsw i32 %54, %57
  %59 = sext i32 %58 to i64
  %60 = load ptr, ptr %2, align 8, !tbaa !10
  %61 = getelementptr inbounds nuw %struct.CVodeMemRec, ptr %60, i32 0, i32 160
  %62 = load i64, ptr %61, align 8, !tbaa !219
  %63 = mul nsw i64 %59, %62
  %64 = load ptr, ptr %2, align 8, !tbaa !10
  %65 = getelementptr inbounds nuw %struct.CVodeMemRec, ptr %64, i32 0, i32 162
  %66 = load i64, ptr %65, align 8, !tbaa !110
  %67 = sub nsw i64 %66, %63
  store i64 %67, ptr %65, align 8, !tbaa !110
  %68 = load i32, ptr %4, align 4, !tbaa !3
  %69 = add nsw i32 %68, 5
  %70 = load ptr, ptr %2, align 8, !tbaa !10
  %71 = getelementptr inbounds nuw %struct.CVodeMemRec, ptr %70, i32 0, i32 23
  %72 = load i32, ptr %71, align 8, !tbaa !230
  %73 = mul nsw i32 %69, %72
  %74 = sext i32 %73 to i64
  %75 = load ptr, ptr %2, align 8, !tbaa !10
  %76 = getelementptr inbounds nuw %struct.CVodeMemRec, ptr %75, i32 0, i32 161
  %77 = load i64, ptr %76, align 8, !tbaa !220
  %78 = mul nsw i64 %74, %77
  %79 = load ptr, ptr %2, align 8, !tbaa !10
  %80 = getelementptr inbounds nuw %struct.CVodeMemRec, ptr %79, i32 0, i32 163
  %81 = load i64, ptr %80, align 8, !tbaa !111
  %82 = sub nsw i64 %81, %78
  store i64 %82, ptr %80, align 8, !tbaa !111
  %83 = load ptr, ptr %2, align 8, !tbaa !10
  %84 = getelementptr inbounds nuw %struct.CVodeMemRec, ptr %83, i32 0, i32 214
  %85 = load i32, ptr %84, align 4, !tbaa !120
  %86 = icmp ne i32 %85, 0
  br i1 %86, label %87, label %118

87:                                               ; preds = %52
  %88 = load ptr, ptr %2, align 8, !tbaa !10
  %89 = getelementptr inbounds nuw %struct.CVodeMemRec, ptr %88, i32 0, i32 49
  %90 = load ptr, ptr %89, align 8, !tbaa !259
  %91 = load ptr, ptr %2, align 8, !tbaa !10
  %92 = getelementptr inbounds nuw %struct.CVodeMemRec, ptr %91, i32 0, i32 23
  %93 = load i32, ptr %92, align 8, !tbaa !230
  call void @N_VDestroyVectorArray(ptr noundef %90, i32 noundef %93)
  %94 = load ptr, ptr %2, align 8, !tbaa !10
  %95 = getelementptr inbounds nuw %struct.CVodeMemRec, ptr %94, i32 0, i32 23
  %96 = load i32, ptr %95, align 8, !tbaa !230
  %97 = sext i32 %96 to i64
  %98 = load ptr, ptr %2, align 8, !tbaa !10
  %99 = getelementptr inbounds nuw %struct.CVodeMemRec, ptr %98, i32 0, i32 160
  %100 = load i64, ptr %99, align 8, !tbaa !219
  %101 = mul nsw i64 %97, %100
  %102 = load ptr, ptr %2, align 8, !tbaa !10
  %103 = getelementptr inbounds nuw %struct.CVodeMemRec, ptr %102, i32 0, i32 162
  %104 = load i64, ptr %103, align 8, !tbaa !110
  %105 = sub nsw i64 %104, %101
  store i64 %105, ptr %103, align 8, !tbaa !110
  %106 = load ptr, ptr %2, align 8, !tbaa !10
  %107 = getelementptr inbounds nuw %struct.CVodeMemRec, ptr %106, i32 0, i32 23
  %108 = load i32, ptr %107, align 8, !tbaa !230
  %109 = sext i32 %108 to i64
  %110 = load ptr, ptr %2, align 8, !tbaa !10
  %111 = getelementptr inbounds nuw %struct.CVodeMemRec, ptr %110, i32 0, i32 161
  %112 = load i64, ptr %111, align 8, !tbaa !220
  %113 = mul nsw i64 %109, %112
  %114 = load ptr, ptr %2, align 8, !tbaa !10
  %115 = getelementptr inbounds nuw %struct.CVodeMemRec, ptr %114, i32 0, i32 163
  %116 = load i64, ptr %115, align 8, !tbaa !111
  %117 = sub nsw i64 %116, %113
  store i64 %117, ptr %115, align 8, !tbaa !111
  br label %118

118:                                              ; preds = %87, %52
  %119 = load ptr, ptr %2, align 8, !tbaa !10
  %120 = getelementptr inbounds nuw %struct.CVodeMemRec, ptr %119, i32 0, i32 215
  %121 = load i32, ptr %120, align 8, !tbaa !121
  %122 = icmp ne i32 %121, 0
  br i1 %122, label %123, label %137

123:                                              ; preds = %118
  %124 = load ptr, ptr %2, align 8, !tbaa !10
  %125 = getelementptr inbounds nuw %struct.CVodeMemRec, ptr %124, i32 0, i32 48
  %126 = load ptr, ptr %125, align 8, !tbaa !258
  call void @free(ptr noundef %126) #10
  %127 = load ptr, ptr %2, align 8, !tbaa !10
  %128 = getelementptr inbounds nuw %struct.CVodeMemRec, ptr %127, i32 0, i32 48
  store ptr null, ptr %128, align 8, !tbaa !258
  %129 = load ptr, ptr %2, align 8, !tbaa !10
  %130 = getelementptr inbounds nuw %struct.CVodeMemRec, ptr %129, i32 0, i32 23
  %131 = load i32, ptr %130, align 8, !tbaa !230
  %132 = sext i32 %131 to i64
  %133 = load ptr, ptr %2, align 8, !tbaa !10
  %134 = getelementptr inbounds nuw %struct.CVodeMemRec, ptr %133, i32 0, i32 162
  %135 = load i64, ptr %134, align 8, !tbaa !110
  %136 = sub nsw i64 %135, %132
  store i64 %136, ptr %134, align 8, !tbaa !110
  br label %137

137:                                              ; preds = %123, %118
  %138 = load ptr, ptr %2, align 8, !tbaa !10
  %139 = getelementptr inbounds nuw %struct.CVodeMemRec, ptr %138, i32 0, i32 214
  store i32 0, ptr %139, align 4, !tbaa !120
  %140 = load ptr, ptr %2, align 8, !tbaa !10
  %141 = getelementptr inbounds nuw %struct.CVodeMemRec, ptr %140, i32 0, i32 215
  store i32 0, ptr %141, align 8, !tbaa !121
  call void @llvm.lifetime.end.p0(i64 4, ptr %4) #10
  call void @llvm.lifetime.end.p0(i64 4, ptr %3) #10
  ret void
}

; Function Attrs: nounwind uwtable
define void @CVodeQuadSensFree(ptr noundef %0) #0 {
  %2 = alloca ptr, align 8
  %3 = alloca ptr, align 8
  %4 = alloca i32, align 4
  store ptr %0, ptr %2, align 8, !tbaa !153
  call void @llvm.lifetime.start.p0(i64 8, ptr %3) #10
  %5 = load ptr, ptr %2, align 8, !tbaa !153
  %6 = icmp eq ptr %5, null
  br i1 %6, label %7, label %8

7:                                                ; preds = %1
  store i32 1, ptr %4, align 4
  br label %32

8:                                                ; preds = %1
  %9 = load ptr, ptr %2, align 8, !tbaa !153
  store ptr %9, ptr %3, align 8, !tbaa !10
  %10 = load ptr, ptr %3, align 8, !tbaa !10
  %11 = getelementptr inbounds nuw %struct.CVodeMemRec, ptr %10, i32 0, i32 216
  %12 = load i32, ptr %11, align 4, !tbaa !122
  %13 = icmp ne i32 %12, 0
  br i1 %13, label %14, label %20

14:                                               ; preds = %8
  %15 = load ptr, ptr %3, align 8, !tbaa !10
  call void @cvQuadSensFreeVectors(ptr noundef %15)
  %16 = load ptr, ptr %3, align 8, !tbaa !10
  %17 = getelementptr inbounds nuw %struct.CVodeMemRec, ptr %16, i32 0, i32 216
  store i32 0, ptr %17, align 4, !tbaa !122
  %18 = load ptr, ptr %3, align 8, !tbaa !10
  %19 = getelementptr inbounds nuw %struct.CVodeMemRec, ptr %18, i32 0, i32 41
  store i32 0, ptr %19, align 8, !tbaa !98
  br label %20

20:                                               ; preds = %14, %8
  %21 = load ptr, ptr %3, align 8, !tbaa !10
  %22 = getelementptr inbounds nuw %struct.CVodeMemRec, ptr %21, i32 0, i32 50
  %23 = load ptr, ptr %22, align 8, !tbaa !104
  %24 = icmp ne ptr %23, null
  br i1 %24, label %25, label %31

25:                                               ; preds = %20
  %26 = load ptr, ptr %3, align 8, !tbaa !10
  %27 = getelementptr inbounds nuw %struct.CVodeMemRec, ptr %26, i32 0, i32 50
  %28 = load ptr, ptr %27, align 8, !tbaa !104
  call void @free(ptr noundef %28) #10
  %29 = load ptr, ptr %3, align 8, !tbaa !10
  %30 = getelementptr inbounds nuw %struct.CVodeMemRec, ptr %29, i32 0, i32 50
  store ptr null, ptr %30, align 8, !tbaa !104
  br label %31

31:                                               ; preds = %25, %20
  store i32 0, ptr %4, align 4
  br label %32

32:                                               ; preds = %31, %7
  call void @llvm.lifetime.end.p0(i64 8, ptr %3) #10
  %33 = load i32, ptr %4, align 4
  switch i32 %33, label %35 [
    i32 0, label %34
    i32 1, label %34
  ]

34:                                               ; preds = %32, %32
  ret void

35:                                               ; preds = %32
  unreachable
}